target datalayout = "e-m:e-p270:32:32-p271:32:32-p272:64:64-i64:64-i128:128-f80:128-n8:16:32:64-S128"
target triple = "x86_64-pc-linux-gnu"

%struct.pathspec = type { i32, i8, i32, i32, ptr }
%struct.diff_options = type { ptr, ptr, i32, i32, ptr, i32, ptr, i64, i64, ptr, ptr, ptr, ptr, %struct.diff_flags, i32, i32, i32, i32, i32, i32, i32, i32, i32, i32, i32, i32, i32, i32, i32, i32, i32, i32, i32, i32, i32, i32, ptr, i32, ptr, i32, i32, ptr, i64, i64, i32, i32, i32, i32, ptr, i32, i32, ptr, i32, i32, ptr, ptr, i32, [3 x i8], %struct.pathspec, ptr, ptr, ptr, ptr, ptr, ptr, ptr, ptr, i32, ptr, i32, i32, ptr, ptr, i32 }
%struct.diff_flags = type { i32, i32, i32, i32, i32, i32, i32, i32, i32, i32, i32, i32, i32, i32, i32, i32, i32, i32, i32, i32, i32, i32, i32, i32, i32, i32, i32, i32, i32, i32, i32, i32, i32, i32, i32 }
%struct.combine_diff_path = type { ptr, ptr, i32, %struct.object_id, [0 x %struct.combine_diff_parent] }
%struct.object_id = type { [32 x i8], i32 }
%struct.combine_diff_parent = type { i8, i32, %struct.object_id, ptr }

; Function Attrs: nounwind uwtable
define internal i32 @match_objfind(ptr noundef %0, i32 noundef %1, ptr noundef %2) #0 {
  %4 = alloca i32, align 4
  %5 = alloca ptr, align 8
  %6 = alloca i32, align 4
  %7 = alloca ptr, align 8
  %8 = alloca i32, align 4
  %9 = alloca i32, align 4
  store ptr %0, ptr %5, align 8, !tbaa !4
  store i32 %1, ptr %6, align 4, !tbaa !9
  store ptr %2, ptr %7, align 8, !tbaa !157
  call void @llvm.lifetime.start.p0(i64 4, ptr %8) #9
  %10 = load ptr, ptr %7, align 8, !tbaa !157
  %11 = load ptr, ptr %5, align 8, !tbaa !4
  %12 = getelementptr inbounds nuw %struct.combine_diff_path, ptr %11, i32 0, i32 3
  %13 = call i32 @oidset_contains(ptr noundef %10, ptr noundef %12)
  %14 = icmp ne i32 %13, 0
  br i1 %14, label %15, label %16

15:                                               ; preds = %3
  store i32 1, ptr %4, align 4
  store i32 1, ptr %9, align 4
  br label %37

16:                                               ; preds = %3
  store i32 0, ptr %8, align 4, !tbaa !9
  br label %17

17:                                               ; preds = %33, %16
  %18 = load i32, ptr %8, align 4, !tbaa !9
  %19 = load i32, ptr %6, align 4, !tbaa !9
  %20 = icmp slt i32 %18, %19
  br i1 %20, label %21, label %36

21:                                               ; preds = %17
  %22 = load ptr, ptr %7, align 8, !tbaa !157
  %23 = load ptr, ptr %5, align 8, !tbaa !4
  %24 = getelementptr inbounds nuw %struct.combine_diff_path, ptr %23, i32 0, i32 4
  %25 = load i32, ptr %8, align 4, !tbaa !9
  %26 = sext i32 %25 to i64
  %27 = getelementptr inbounds [0 x %struct.combine_diff_parent], ptr %24, i64 0, i64 %26
  %28 = getelementptr inbounds nuw %struct.combine_diff_parent, ptr %27, i32 0, i32 2
  %29 = call i32 @oidset_contains(ptr noundef %22, ptr noundef %28)
  %30 = icmp ne i32 %29, 0
  br i1 %30, label %31, label %32

31:                                               ; preds = %21
  store i32 1, ptr %4, align 4
  store i32 1, ptr %9, align 4
  br label %37

32:                                               ; preds = %21
  br label %33

33:                                               ; preds = %32
  %34 = load i32, ptr %8, align 4, !tbaa !9
  %35 = add nsw i32 %34, 1
  store i32 %35, ptr %8, align 4, !tbaa !9
  br label %17, !llvm.loop !306

36:                                               ; preds = %17
  store i32 0, ptr %4, align 4
  store i32 1, ptr %9, align 4
  br label %37

37:                                               ; preds = %36, %31, %15
  call void @llvm.lifetime.end.p0(i64 4, ptr %8) #9
  %38 = load i32, ptr %4, align 4
  ret i32 %38
}

; Function Attrs: nounwind uwtable
define internal ptr @combined_objfind(ptr noundef %0, ptr noundef %1, i32 noundef %2) #0 {
  %4 = alloca ptr, align 8
  %5 = alloca ptr, align 8
  %6 = alloca i32, align 4
  %7 = alloca ptr, align 8
  %8 = alloca ptr, align 8
  %9 = alloca ptr, align 8
  %10 = alloca ptr, align 8
  store ptr %0, ptr %4, align 8, !tbaa !13
  store ptr %1, ptr %5, align 8, !tbaa !4
  store i32 %2, ptr %6, align 4, !tbaa !9
  call void @llvm.lifetime.start.p0(i64 8, ptr %7) #9
  store ptr null, ptr %7, align 8, !tbaa !4
  call void @llvm.lifetime.start.p0(i64 8, ptr %8) #9
  store ptr %7, ptr %8, align 8, !tbaa !187
  call void @llvm.lifetime.start.p0(i64 8, ptr %9) #9
  %11 = load ptr, ptr %5, align 8, !tbaa !4
  store ptr %11, ptr %9, align 8, !tbaa !4
  br label %12

12:                                               ; preds = %35, %3
  %13 = load ptr, ptr %9, align 8, !tbaa !4
  %14 = icmp ne ptr %13, null
  br i1 %14, label %15, label %37

15:                                               ; preds = %12
  call void @llvm.lifetime.start.p0(i64 8, ptr %10) #9
  %16 = load ptr, ptr %9, align 8, !tbaa !4
  %17 = getelementptr inbounds nuw %struct.combine_diff_path, ptr %16, i32 0, i32 0
  %18 = load ptr, ptr %17, align 8, !tbaa !4
  store ptr %18, ptr %10, align 8, !tbaa !4
  %19 = load ptr, ptr %9, align 8, !tbaa !4
  %20 = load i32, ptr %6, align 4, !tbaa !9
  %21 = load ptr, ptr %4, align 8, !tbaa !13
  %22 = getelementptr inbounds nuw %struct.diff_options, ptr %21, i32 0, i32 51
  %23 = load ptr, ptr %22, align 8, !tbaa !189
  %24 = call i32 @match_objfind(ptr noundef %19, i32 noundef %20, ptr noundef %23)
  %25 = icmp ne i32 %24, 0
  br i1 %25, label %26, label %33

26:                                               ; preds = %15
  %27 = load ptr, ptr %9, align 8, !tbaa !4
  %28 = getelementptr inbounds nuw %struct.combine_diff_path, ptr %27, i32 0, i32 0
  store ptr null, ptr %28, align 8, !tbaa !4
  %29 = load ptr, ptr %9, align 8, !tbaa !4
  %30 = load ptr, ptr %8, align 8, !tbaa !187
  store ptr %29, ptr %30, align 8, !tbaa !4
  %31 = load ptr, ptr %9, align 8, !tbaa !4
  %32 = getelementptr inbounds nuw %struct.combine_diff_path, ptr %31, i32 0, i32 0
  store ptr %32, ptr %8, align 8, !tbaa !187
  br label %35

33:                                               ; preds = %15
  %34 = load ptr, ptr %9, align 8, !tbaa !4
  call void @free(ptr noundef %34) #9
  br label %35

35:                                               ; preds = %33, %26
  %36 = load ptr, ptr %10, align 8, !tbaa !4
  store ptr %36, ptr %9, align 8, !tbaa !4
  call void @llvm.lifetime.end.p0(i64 8, ptr %10) #9
  br label %12, !llvm.loop !190

37:                                               ; preds = %12
  %38 = load ptr, ptr %7, align 8, !tbaa !4
  call void @llvm.lifetime.end.p0(i64 8, ptr %9) #9
  call void @llvm.lifetime.end.p0(i64 8, ptr %8) #9
  call void @llvm.lifetime.end.p0(i64 8, ptr %7) #9
  ret ptr %38
}