; Function Attrs: nounwind uwtable
define internal fastcc ptr @combined_objfind(ptr noundef readonly captures(none) %0, ptr noundef %1, i32 noundef range(i32 1, 0) %2) unnamed_addr #0 {
  %4 = alloca ptr, align 8
  call void @llvm.lifetime.start.p0(i64 8, ptr nonnull %4)
  store ptr null, ptr %4, align 8, !tbaa !212
  %.not15 = icmp eq ptr %1, null
  br i1 %.not15, label %._crit_edge, label %.lr.ph

.lr.ph:                                           ; preds = %3
  %5 = getelementptr inbounds nuw i8, ptr %0, i64 416
  %6 = icmp sgt i32 %2, 0
  %wide.trip.count.i = zext nneg i32 %2 to i64
  br i1 %6, label %.lr.ph.split.us, label %.lr.ph.split

.lr.ph.split.us:                                  ; preds = %.lr.ph, %16
  %.017.us = phi ptr [ %.1.us, %16 ], [ %4, %.lr.ph ]
  %.01116.us = phi ptr [ %7, %16 ], [ %1, %.lr.ph ]
  %7 = load ptr, ptr %.01116.us, align 8, !tbaa !212
  %8 = load ptr, ptr %5, align 8, !tbaa !252
  %9 = getelementptr inbounds nuw i8, ptr %.01116.us, i64 20
  %10 = tail call i32 @oidset_contains(ptr noundef %8, ptr noundef nonnull %9) #15
  %.not.i.us = icmp eq i32 %10, 0
  br i1 %.not.i.us, label %.preheader.i.us, label %match_objfind.exit.us

.preheader.i.us:                                  ; preds = %.lr.ph.split.us
  %11 = getelementptr i8, ptr %.01116.us, i64 64
  br label %12

12:                                               ; preds = %15, %.preheader.i.us
  %indvars.iv.i.us = phi i64 [ 0, %.preheader.i.us ], [ %indvars.iv.next.i.us, %15 ]
  %.idx.i.us = mul nuw nsw i64 %indvars.iv.i.us, 56
  %13 = getelementptr i8, ptr %11, i64 %.idx.i.us
  %14 = tail call i32 @oidset_contains(ptr noundef %8, ptr noundef %13) #15
  %.not9.i.us = icmp eq i32 %14, 0
  br i1 %.not9.i.us, label %15, label %match_objfind.exit.us

match_objfind.exit.us:                            ; preds = %12, %.lr.ph.split.us
  store ptr null, ptr %.01116.us, align 8, !tbaa !212
  store ptr %.01116.us, ptr %.017.us, align 8, !tbaa !212
  br label %16

15:                                               ; preds = %12
  %indvars.iv.next.i.us = add nuw nsw i64 %indvars.iv.i.us, 1
  %exitcond.not.i.us = icmp eq i64 %indvars.iv.next.i.us, %wide.trip.count.i
  br i1 %exitcond.not.i.us, label %.loopexit.us, label %12, !llvm.loop !253

16:                                               ; preds = %.loopexit.us, %match_objfind.exit.us
  %.1.us = phi ptr [ %.01116.us, %match_objfind.exit.us ], [ %.017.us, %.loopexit.us ]
  %.not.us = icmp eq ptr %7, null
  br i1 %.not.us, label %._crit_edge, label %.lr.ph.split.us, !llvm.loop !254

.loopexit.us:                                     ; preds = %15
  tail call void @free(ptr noundef %.01116.us) #15
  br label %16

.lr.ph.split:                                     ; preds = %.lr.ph, %21
  %.017 = phi ptr [ %.1, %21 ], [ %4, %.lr.ph ]
  %.01116 = phi ptr [ %17, %21 ], [ %1, %.lr.ph ]
  %17 = load ptr, ptr %.01116, align 8, !tbaa !212
  %18 = load ptr, ptr %5, align 8, !tbaa !252
  %19 = getelementptr inbounds nuw i8, ptr %.01116, i64 20
  %20 = tail call i32 @oidset_contains(ptr noundef %18, ptr noundef nonnull %19) #15
  %.not.i = icmp eq i32 %20, 0
  br i1 %.not.i, label %.preheader.i, label %match_objfind.exit

.preheader.i:                                     ; preds = %.lr.ph.split
  tail call void @free(ptr noundef nonnull %.01116) #15
  br label %21

match_objfind.exit:                               ; preds = %.lr.ph.split
  store ptr null, ptr %.01116, align 8, !tbaa !212
  store ptr %.01116, ptr %.017, align 8, !tbaa !212
  br label %21

21:                                               ; preds = %.preheader.i, %match_objfind.exit
  %.1 = phi ptr [ %.01116, %match_objfind.exit ], [ %.017, %.preheader.i ]
  %.not = icmp eq ptr %17, null
  br i1 %.not, label %._crit_edge, label %.lr.ph.split, !llvm.loop !254

._crit_edge:                                      ; preds = %21, %16, %3
  %.0..0..0..0. = load ptr, ptr %4, align 8, !tbaa !212
  call void @llvm.lifetime.end.p0(i64 8, ptr nonnull %4)
  ret ptr %.0..0..0..0.
}